; Function Attrs: mustprogress uwtable
define internal void @_ZN2cvL11resizeArea_IffEEvRKNS_3MatERS1_PKNS_13DecimateAlphaEiS7_iPKi(ptr noundef nonnull align 8 dereferenceable(96) %0, ptr noundef nonnull align 8 dereferenceable(96) %1, ptr noundef %2, i32 noundef %3, ptr noundef %4, i32 noundef %5, ptr noundef %6) #4 personality ptr @__gxx_personality_v0 {
  %8 = alloca %"class.cv::Range", align 4
  %9 = alloca %"class.cv::ResizeArea_Invoker.80", align 8
  call void @llvm.lifetime.start.p0(i64 8, ptr nonnull %8) #21
  %10 = getelementptr inbounds nuw i8, ptr %1, i64 8
  %11 = load i32, ptr %10, align 8, !tbaa !83
  store i32 0, ptr %8, align 4, !tbaa !31
  %12 = getelementptr inbounds nuw i8, ptr %8, i64 4
  store i32 %11, ptr %12, align 4, !tbaa !33
  call void @llvm.lifetime.start.p0(i64 56, ptr nonnull %9) #21
  store ptr getelementptr inbounds nuw inrange(-16, 24) (i8, ptr @_ZTVN2cv18ResizeArea_InvokerIffEE, i64 16), ptr %9, align 8, !tbaa !34
  %13 = getelementptr inbounds nuw i8, ptr %9, i64 8
  store ptr %0, ptr %13, align 8, !tbaa !133
  %14 = getelementptr inbounds nuw i8, ptr %9, i64 16
  store ptr %1, ptr %14, align 8, !tbaa !135
  %15 = getelementptr inbounds nuw i8, ptr %9, i64 24
  store ptr %2, ptr %15, align 8, !tbaa !136
  %16 = getelementptr inbounds nuw i8, ptr %9, i64 40
  store i32 %3, ptr %16, align 8, !tbaa !137
  %17 = getelementptr inbounds nuw i8, ptr %9, i64 32
  store ptr %4, ptr %17, align 8, !tbaa !138
  %18 = getelementptr inbounds nuw i8, ptr %9, i64 44
  store i32 %5, ptr %18, align 4, !tbaa !139
  %19 = getelementptr inbounds nuw i8, ptr %9, i64 48
  store ptr %6, ptr %19, align 8, !tbaa !140
  %20 = invoke noundef i64 @_ZNK2cv3Mat5totalEv(ptr noundef nonnull align 8 dereferenceable(96) %1)
          to label %21 unwind label %25

21:                                               ; preds = %7
  %22 = uitofp i64 %20 to double
  %23 = fmul double %22, 0x3EF0000000000000
  invoke void @_ZN2cv13parallel_for_ERKNS_5RangeERKNS_16ParallelLoopBodyEd(ptr noundef nonnull align 4 dereferenceable(8) %8, ptr noundef nonnull align 8 dereferenceable(8) %9, double noundef %23)
          to label %24 unwind label %25

24:                                               ; preds = %21
  call void @_ZN2cv16ParallelLoopBodyD2Ev(ptr noundef nonnull align 8 dereferenceable(56) %9) #21
  call void @llvm.lifetime.end.p0(i64 56, ptr nonnull %9) #21
  call void @llvm.lifetime.end.p0(i64 8, ptr nonnull %8) #21
  ret void

25:                                               ; preds = %21, %7
  %26 = landingpad { ptr, i32 }
          cleanup
  call void @_ZN2cv16ParallelLoopBodyD2Ev(ptr noundef nonnull align 8 dereferenceable(56) %9) #21
  call void @llvm.lifetime.end.p0(i64 56, ptr nonnull %9) #21
  call void @llvm.lifetime.end.p0(i64 8, ptr nonnull %8) #21
  resume { ptr, i32 } %26
}